; Function Attrs: mustprogress nounwind uwtable
define void @_ZN6google8protobuf8compiler21CodeGeneratorResponseD2Ev(ptr noundef nonnull align 8 dereferenceable(72) %this) unnamed_addr #7 align 2 personality ptr @__gxx_personality_v0 {
entry:
  %_internal_metadata_ = getelementptr inbounds i8, ptr %this, i64 8
  %0 = load i64, ptr %_internal_metadata_, align 8
  %and.i.i = and i64 %0, 1
  %tobool.i.not.i = icmp eq i64 %and.i.i, 0
  br i1 %tobool.i.not.i, label %invoke.cont, label %if.then.i

if.then.i:                                        ; preds = %entry
  invoke void @_ZN6google8protobuf8internal16InternalMetadata21DeleteOutOfLineHelperINS0_15UnknownFieldSetEEEvv(ptr noundef nonnull align 8 dereferenceable(8) %_internal_metadata_)
          to label %invoke.cont unwind label %terminate.lpad

invoke.cont:                                      ; preds = %entry, %if.then.i
  %error_.i = getelementptr inbounds i8, ptr %this, i64 48
  invoke void @_ZN6google8protobuf8internal14ArenaStringPtr7DestroyEv(ptr noundef nonnull align 8 dereferenceable(8) %error_.i)
          to label %.noexc1 unwind label %terminate.lpad

.noexc1:                                          ; preds = %invoke.cont
  %file_.i.i = getelementptr inbounds i8, ptr %this, i64 24
  %1 = load ptr, ptr %file_.i.i, align 8
  %cmp.i.not.i.i.i = icmp eq ptr %1, null
  br i1 %cmp.i.not.i.i.i, label %invoke.cont2, label %if.end.i.i.i

if.end.i.i.i:                                     ; preds = %.noexc1
  invoke void @_ZN6google8protobuf8internal20RepeatedPtrFieldBase13DestroyProtosEv(ptr noundef nonnull align 8 dereferenceable(24) %file_.i.i)
          to label %invoke.cont2 unwind label %terminate.lpad.i.i.i

terminate.lpad.i.i.i:                             ; preds = %if.end.i.i.i
  %2 = landingpad { ptr, i32 }
          catch ptr null
  %3 = extractvalue { ptr, i32 } %2, 0
  tail call void @__clang_call_terminate(ptr %3) #17
  unreachable

invoke.cont2:                                     ; preds = %if.end.i.i.i, %.noexc1
  ret void

terminate.lpad:                                   ; preds = %invoke.cont, %if.then.i
  %4 = landingpad { ptr, i32 }
          catch ptr null
  %5 = extractvalue { ptr, i32 } %4, 0
  tail call void @__clang_call_terminate(ptr %5) #17
  unreachable
}